
embeddedporject1.elf:     file format elf32-littlearm

Sections:
Idx Name          Size      VMA       LMA       File off  Algn
  0 .isr_vector   00000194  08000000  08000000  00010000  2**0
                  CONTENTS, ALLOC, LOAD, READONLY, DATA
  1 .text         0000063c  08000194  08000194  00010194  2**2
                  CONTENTS, ALLOC, LOAD, READONLY, CODE
  2 .rodata       00000018  080007d0  080007d0  000107d0  2**2
                  CONTENTS, ALLOC, LOAD, READONLY, DATA
  3 .ARM.extab    00000000  080007e8  080007e8  000107f0  2**0
                  CONTENTS
  4 .ARM          00000000  080007e8  080007e8  000107f0  2**0
                  CONTENTS
  5 .preinit_array 00000000  080007e8  080007f0  000107f0  2**0
                  CONTENTS, ALLOC, LOAD, DATA
  6 .init_array   00000004  080007e8  080007e8  000107e8  2**2
                  CONTENTS, ALLOC, LOAD, DATA
  7 .fini_array   00000004  080007ec  080007ec  000107ec  2**2
                  CONTENTS, ALLOC, LOAD, DATA
  8 .data         00000000  20000000  20000000  000107f0  2**0
                  CONTENTS, ALLOC, LOAD, DATA
  9 .bss          00000038  20000000  080007f0  00020000  2**2
                  ALLOC
 10 ._user_heap_stack 00000600  20000038  080007f0  00020038  2**0
                  ALLOC
 11 .ARM.attributes 0000002a  00000000  00000000  000107f0  2**0
                  CONTENTS, READONLY
 12 .debug_info   00001179  00000000  00000000  0001081a  2**0
                  CONTENTS, READONLY, DEBUGGING, OCTETS
 13 .debug_abbrev 00000521  00000000  00000000  00011993  2**0
                  CONTENTS, READONLY, DEBUGGING, OCTETS
 14 .debug_aranges 00000128  00000000  00000000  00011eb8  2**3
                  CONTENTS, READONLY, DEBUGGING, OCTETS
 15 .debug_ranges 000000e0  00000000  00000000  00011fe0  2**3
                  CONTENTS, READONLY, DEBUGGING, OCTETS
 16 .debug_macro  00002dee  00000000  00000000  000120c0  2**0
                  CONTENTS, READONLY, DEBUGGING, OCTETS
 17 .debug_line   00001e4b  00000000  00000000  00014eae  2**0
                  CONTENTS, READONLY, DEBUGGING, OCTETS
 18 .debug_str    0000b8da  00000000  00000000  00016cf9  2**0
                  CONTENTS, READONLY, DEBUGGING, OCTETS
 19 .comment      00000050  00000000  00000000  000225d3  2**0
                  CONTENTS, READONLY
 20 .debug_frame  00000364  00000000  00000000  00022624  2**2
                  CONTENTS, READONLY, DEBUGGING, OCTETS

Disassembly of section .text:

08000194 <__do_global_dtors_aux>:
 8000194:	b510      	push	{r4, lr}
 8000196:	4c05      	ldr	r4, [pc, #20]	; (80001ac <__do_global_dtors_aux+0x18>)
 8000198:	7823      	ldrb	r3, [r4, #0]
 800019a:	b933      	cbnz	r3, 80001aa <__do_global_dtors_aux+0x16>
 800019c:	4b04      	ldr	r3, [pc, #16]	; (80001b0 <__do_global_dtors_aux+0x1c>)
 800019e:	b113      	cbz	r3, 80001a6 <__do_global_dtors_aux+0x12>
 80001a0:	4804      	ldr	r0, [pc, #16]	; (80001b4 <__do_global_dtors_aux+0x20>)
 80001a2:	f3af 8000 	nop.w
 80001a6:	2301      	movs	r3, #1
 80001a8:	7023      	strb	r3, [r4, #0]
 80001aa:	bd10      	pop	{r4, pc}
 80001ac:	20000000 	.word	0x20000000
 80001b0:	00000000 	.word	0x00000000
 80001b4:	080007b8 	.word	0x080007b8

080001b8 <frame_dummy>:
 80001b8:	b508      	push	{r3, lr}
 80001ba:	4b03      	ldr	r3, [pc, #12]	; (80001c8 <frame_dummy+0x10>)
 80001bc:	b11b      	cbz	r3, 80001c6 <frame_dummy+0xe>
 80001be:	4903      	ldr	r1, [pc, #12]	; (80001cc <frame_dummy+0x14>)
 80001c0:	4803      	ldr	r0, [pc, #12]	; (80001d0 <frame_dummy+0x18>)
 80001c2:	f3af 8000 	nop.w
 80001c6:	bd08      	pop	{r3, pc}
 80001c8:	00000000 	.word	0x00000000
 80001cc:	20000004 	.word	0x20000004
 80001d0:	080007b8 	.word	0x080007b8

080001d4 <main>:

void I2C_GPIO_Config(void);

uint8_t some_data[] = "HELLO WORLD";

int main(){
 80001d4:	b580      	push	{r7, lr}
 80001d6:	af00      	add	r7, sp, #0

	I2C_GPIO_Config();
 80001d8:	f000 f842 	bl	8000260 <I2C_GPIO_Config>

	I2C_Config();
 80001dc:	f000 f804 	bl	80001e8 <I2C_Config>
 80001e0:	2300      	movs	r3, #0

	//I2C_MasterTransmitData(&I2C_Handle, some_data,strlen((char*)some_data) , SlaveAddr);


}
 80001e2:	4618      	mov	r0, r3
 80001e4:	bd80      	pop	{r7, pc}
	...

080001e8 <I2C_Config>:

void I2C_Config(void){
 80001e8:	b580      	push	{r7, lr}
 80001ea:	b082      	sub	sp, #8
 80001ec:	af00      	add	r7, sp, #0

	RCC_I2C1_CLCK_ENABLE();
 80001ee:	2300      	movs	r3, #0
 80001f0:	607b      	str	r3, [r7, #4]
 80001f2:	4b17      	ldr	r3, [pc, #92]	; (8000250 <I2C_Config+0x68>)
 80001f4:	6c1b      	ldr	r3, [r3, #64]	; 0x40
 80001f6:	4a16      	ldr	r2, [pc, #88]	; (8000250 <I2C_Config+0x68>)
 80001f8:	f443 1300 	orr.w	r3, r3, #2097152	; 0x200000
 80001fc:	6413      	str	r3, [r2, #64]	; 0x40
 80001fe:	4b14      	ldr	r3, [pc, #80]	; (8000250 <I2C_Config+0x68>)
 8000200:	6c1b      	ldr	r3, [r3, #64]	; 0x40
 8000202:	f403 1300 	and.w	r3, r3, #2097152	; 0x200000
 8000206:	607b      	str	r3, [r7, #4]

	I2C_Handle.Instance=I2C1;
 8000208:	4b12      	ldr	r3, [pc, #72]	; (8000254 <I2C_Config+0x6c>)
 800020a:	4a13      	ldr	r2, [pc, #76]	; (8000258 <I2C_Config+0x70>)
 800020c:	601a      	str	r2, [r3, #0]
	I2C_Handle.Init.ACKState = I2C_ACK_ENABLE;
 800020e:	4b11      	ldr	r3, [pc, #68]	; (8000254 <I2C_Config+0x6c>)
 8000210:	f44f 6280 	mov.w	r2, #1024	; 0x400
 8000214:	609a      	str	r2, [r3, #8]
	I2C_Handle.Init.DutyCycle = I2C_DUTY_FM_2;
 8000216:	4b0f      	ldr	r3, [pc, #60]	; (8000254 <I2C_Config+0x6c>)
 8000218:	f44f 4200 	mov.w	r2, #32768	; 0x8000
 800021c:	615a      	str	r2, [r3, #20]
	I2C_Handle.Init.AddressingMode = I2C_ADDRMODE_7;
 800021e:	4b0d      	ldr	r3, [pc, #52]	; (8000254 <I2C_Config+0x6c>)
 8000220:	f44f 4280 	mov.w	r2, #16384	; 0x4000
 8000224:	611a      	str	r2, [r3, #16]
	I2C_Handle.Init.ClockSpeed = I2C_SPEED_STANDART;
 8000226:	4b0b      	ldr	r3, [pc, #44]	; (8000254 <I2C_Config+0x6c>)
 8000228:	4a0c      	ldr	r2, [pc, #48]	; (800025c <I2C_Config+0x74>)
 800022a:	605a      	str	r2, [r3, #4]
	I2C_Handle.Init.ClockStretch = I2C_STRETCH_DISABLE;
 800022c:	4b09      	ldr	r3, [pc, #36]	; (8000254 <I2C_Config+0x6c>)
 800022e:	2280      	movs	r2, #128	; 0x80
 8000230:	60da      	str	r2, [r3, #12]
	I2C_Handle.Init.MyOwnAddress = 0;
 8000232:	4b08      	ldr	r3, [pc, #32]	; (8000254 <I2C_Config+0x6c>)
 8000234:	2200      	movs	r2, #0
 8000236:	619a      	str	r2, [r3, #24]

	I2C_Init(&I2C_Handle);
 8000238:	4806      	ldr	r0, [pc, #24]	; (8000254 <I2C_Config+0x6c>)
 800023a:	f000 f923 	bl	8000484 <I2C_Init>

	//NVIC_EnableInterrupt(SPI1_IRQNumber);

	I2C_PeriphState(&I2C_Handle,ENABLE);
 800023e:	2101      	movs	r1, #1
 8000240:	4804      	ldr	r0, [pc, #16]	; (8000254 <I2C_Config+0x6c>)
 8000242:	f000 f9fd 	bl	8000640 <I2C_PeriphState>

}
 8000246:	bf00      	nop
 8000248:	3708      	adds	r7, #8
 800024a:	46bd      	mov	sp, r7
 800024c:	bd80      	pop	{r7, pc}
 800024e:	bf00      	nop
 8000250:	40023800 	.word	0x40023800
 8000254:	2000001c 	.word	0x2000001c
 8000258:	40005400 	.word	0x40005400
 800025c:	000186a0 	.word	0x000186a0

08000260 <I2C_GPIO_Config>:

void I2C_GPIO_Config(void){
 8000260:	b580      	push	{r7, lr}
 8000262:	b088      	sub	sp, #32
 8000264:	af00      	add	r7, sp, #0
	GPIO_InitTypedef GPIO_InitStruct = {0};
 8000266:	1d3b      	adds	r3, r7, #4
 8000268:	2200      	movs	r2, #0
 800026a:	601a      	str	r2, [r3, #0]
 800026c:	605a      	str	r2, [r3, #4]
 800026e:	609a      	str	r2, [r3, #8]
 8000270:	60da      	str	r2, [r3, #12]
 8000272:	611a      	str	r2, [r3, #16]
 8000274:	615a      	str	r2, [r3, #20]

	RCC_GPIOB_CLCK_ENABLE();
 8000276:	2300      	movs	r3, #0
 8000278:	61fb      	str	r3, [r7, #28]
 800027a:	4b10      	ldr	r3, [pc, #64]	; (80002bc <I2C_GPIO_Config+0x5c>)
 800027c:	6b1b      	ldr	r3, [r3, #48]	; 0x30
 800027e:	4a0f      	ldr	r2, [pc, #60]	; (80002bc <I2C_GPIO_Config+0x5c>)
 8000280:	f043 0302 	orr.w	r3, r3, #2
 8000284:	6313      	str	r3, [r2, #48]	; 0x30
 8000286:	4b0d      	ldr	r3, [pc, #52]	; (80002bc <I2C_GPIO_Config+0x5c>)
 8000288:	6b1b      	ldr	r3, [r3, #48]	; 0x30
 800028a:	f003 0302 	and.w	r3, r3, #2
 800028e:	61fb      	str	r3, [r7, #28]

	GPIO_InitStruct.pinnumber = GPIO_PIN_6 | GPIO_PIN_7;
 8000290:	23c0      	movs	r3, #192	; 0xc0
 8000292:	607b      	str	r3, [r7, #4]
	GPIO_InitStruct.mode=GPIO_MODER_ALTERNATE;
 8000294:	2302      	movs	r3, #2
 8000296:	60bb      	str	r3, [r7, #8]
	GPIO_InitStruct.otype=GPIO_OTYPER_PP;
 8000298:	2300      	movs	r3, #0
 800029a:	60fb      	str	r3, [r7, #12]
	GPIO_InitStruct.speed=GPIO_OSPEED_VERY;
 800029c:	2303      	movs	r3, #3
 800029e:	617b      	str	r3, [r7, #20]
	GPIO_InitStruct.pupd=GPIO_PUPD_NOPULL;
 80002a0:	2300      	movs	r3, #0
 80002a2:	613b      	str	r3, [r7, #16]
	GPIO_InitStruct.alternate=GPIO_AF4;
 80002a4:	2304      	movs	r3, #4
 80002a6:	61bb      	str	r3, [r7, #24]

	GPIO_Init(GPIOB,&GPIO_InitStruct);
 80002a8:	1d3b      	adds	r3, r7, #4
 80002aa:	4619      	mov	r1, r3
 80002ac:	4804      	ldr	r0, [pc, #16]	; (80002c0 <I2C_GPIO_Config+0x60>)
 80002ae:	f000 f832 	bl	8000316 <GPIO_Init>
}
 80002b2:	bf00      	nop
 80002b4:	3720      	adds	r7, #32
 80002b6:	46bd      	mov	sp, r7
 80002b8:	bd80      	pop	{r7, pc}
 80002ba:	bf00      	nop
 80002bc:	40023800 	.word	0x40023800
 80002c0:	40020400 	.word	0x40020400

080002c4 <Reset_Handler>:

  .section .text.Reset_Handler
  .weak Reset_Handler
  .type Reset_Handler, %function
Reset_Handler:
  ldr   r0, =_estack
 80002c4:	480d      	ldr	r0, [pc, #52]	; (80002fc <LoopForever+0x2>)
  mov   sp, r0          /* set stack pointer */
 80002c6:	4685      	mov	sp, r0
/* Call the clock system initialization function.*/
  bl  SystemInit
 80002c8:	f3af 8000 	nop.w

/* Copy the data segment initializers from flash to SRAM */
  ldr r0, =_sdata
 80002cc:	480c      	ldr	r0, [pc, #48]	; (8000300 <LoopForever+0x6>)
  ldr r1, =_edata
 80002ce:	490d      	ldr	r1, [pc, #52]	; (8000304 <LoopForever+0xa>)
  ldr r2, =_sidata
 80002d0:	4a0d      	ldr	r2, [pc, #52]	; (8000308 <LoopForever+0xe>)
  movs r3, #0
 80002d2:	2300      	movs	r3, #0
  b LoopCopyDataInit
 80002d4:	e002      	b.n	80002dc <LoopCopyDataInit>

080002d6 <CopyDataInit>:

CopyDataInit:
  ldr r4, [r2, r3]
 80002d6:	58d4      	ldr	r4, [r2, r3]
  str r4, [r0, r3]
 80002d8:	50c4      	str	r4, [r0, r3]
  adds r3, r3, #4
 80002da:	3304      	adds	r3, #4

080002dc <LoopCopyDataInit>:

LoopCopyDataInit:
  adds r4, r0, r3
 80002dc:	18c4      	adds	r4, r0, r3
  cmp r4, r1
 80002de:	428c      	cmp	r4, r1
  bcc CopyDataInit
 80002e0:	d3f9      	bcc.n	80002d6 <CopyDataInit>

/* Zero fill the bss segment. */
  ldr r2, =_sbss
 80002e2:	4a0a      	ldr	r2, [pc, #40]	; (800030c <LoopForever+0x12>)
  ldr r4, =_ebss
 80002e4:	4c0a      	ldr	r4, [pc, #40]	; (8000310 <LoopForever+0x16>)
  movs r3, #0
 80002e6:	2300      	movs	r3, #0
  b LoopFillZerobss
 80002e8:	e001      	b.n	80002ee <LoopFillZerobss>

080002ea <FillZerobss>:

FillZerobss:
  str  r3, [r2]
 80002ea:	6013      	str	r3, [r2, #0]
  adds r2, r2, #4
 80002ec:	3204      	adds	r2, #4

080002ee <LoopFillZerobss>:

LoopFillZerobss:
  cmp r2, r4
 80002ee:	42a2      	cmp	r2, r4
  bcc FillZerobss
 80002f0:	d3fb      	bcc.n	80002ea <FillZerobss>

/* Call static constructors */
  bl __libc_init_array
 80002f2:	f000 fa3d 	bl	8000770 <__libc_init_array>
/* Call the application's entry point.*/
  bl main
 80002f6:	f7ff ff6d 	bl	80001d4 <main>

080002fa <LoopForever>:

LoopForever:
  b LoopForever
 80002fa:	e7fe      	b.n	80002fa <LoopForever>
  ldr   r0, =_estack
 80002fc:	20018000 	.word	0x20018000
  ldr r0, =_sdata
 8000300:	20000000 	.word	0x20000000
  ldr r1, =_edata
 8000304:	20000000 	.word	0x20000000
  ldr r2, =_sidata
 8000308:	080007f0 	.word	0x080007f0
  ldr r2, =_sbss
 800030c:	20000000 	.word	0x20000000
  ldr r4, =_ebss
 8000310:	20000038 	.word	0x20000038

08000314 <ADC_IRQHandler>:
 * @retval : None
*/
  .section .text.Default_Handler,"ax",%progbits
Default_Handler:
Infinite_Loop:
  b Infinite_Loop
 8000314:	e7fe      	b.n	8000314 <ADC_IRQHandler>

08000316 <GPIO_Init>:
	GPIOx->LCKR=temp;
	temp=GPIOx->LCKR;

}

void GPIO_Init(GPIO_Typedef *GPIOx,GPIO_InitTypedef *GPIOStructures){
 8000316:	b480      	push	{r7}
 8000318:	b087      	sub	sp, #28
 800031a:	af00      	add	r7, sp, #0
 800031c:	6078      	str	r0, [r7, #4]
 800031e:	6039      	str	r1, [r7, #0]
	uint32_t position;
	uint32_t fakeposition=0;
 8000320:	2300      	movs	r3, #0
 8000322:	613b      	str	r3, [r7, #16]
	uint32_t lastposition=0;
 8000324:	2300      	movs	r3, #0
 8000326:	60fb      	str	r3, [r7, #12]

	for(position = 0;position < 16;position++){
 8000328:	2300      	movs	r3, #0
 800032a:	617b      	str	r3, [r7, #20]
 800032c:	e09f      	b.n	800046e <GPIO_Init+0x158>

		fakeposition = (0x1 << position);
 800032e:	2201      	movs	r2, #1
 8000330:	697b      	ldr	r3, [r7, #20]
 8000332:	fa02 f303 	lsl.w	r3, r2, r3
 8000336:	613b      	str	r3, [r7, #16]
		lastposition = (uint32_t)(GPIOStructures->pinnumber)&fakeposition;
 8000338:	683b      	ldr	r3, [r7, #0]
 800033a:	681b      	ldr	r3, [r3, #0]
 800033c:	693a      	ldr	r2, [r7, #16]
 800033e:	4013      	ands	r3, r2
 8000340:	60fb      	str	r3, [r7, #12]

		if(fakeposition == lastposition){
 8000342:	693a      	ldr	r2, [r7, #16]
 8000344:	68fb      	ldr	r3, [r7, #12]
 8000346:	429a      	cmp	r2, r3
 8000348:	f040 808e 	bne.w	8000468 <GPIO_Init+0x152>

			uint32_t temp=GPIOx->MODER;
 800034c:	687b      	ldr	r3, [r7, #4]
 800034e:	681b      	ldr	r3, [r3, #0]
 8000350:	60bb      	str	r3, [r7, #8]
			temp &= ~(0x3U << (position * 2));
 8000352:	697b      	ldr	r3, [r7, #20]
 8000354:	005b      	lsls	r3, r3, #1
 8000356:	2203      	movs	r2, #3
 8000358:	fa02 f303 	lsl.w	r3, r2, r3
 800035c:	43db      	mvns	r3, r3
 800035e:	68ba      	ldr	r2, [r7, #8]
 8000360:	4013      	ands	r3, r2
 8000362:	60bb      	str	r3, [r7, #8]
			temp |= (GPIOStructures->mode << (position * 2));
 8000364:	683b      	ldr	r3, [r7, #0]
 8000366:	685a      	ldr	r2, [r3, #4]
 8000368:	697b      	ldr	r3, [r7, #20]
 800036a:	005b      	lsls	r3, r3, #1
 800036c:	fa02 f303 	lsl.w	r3, r2, r3
 8000370:	68ba      	ldr	r2, [r7, #8]
 8000372:	4313      	orrs	r3, r2
 8000374:	60bb      	str	r3, [r7, #8]
			GPIOx->MODER = temp;
 8000376:	687b      	ldr	r3, [r7, #4]
 8000378:	68ba      	ldr	r2, [r7, #8]
 800037a:	601a      	str	r2, [r3, #0]

			if(GPIOStructures->mode == GPIO_MODER_OUTPUT || GPIOStructures->mode == GPIO_MODER_ALTERNATE){
 800037c:	683b      	ldr	r3, [r7, #0]
 800037e:	685b      	ldr	r3, [r3, #4]
 8000380:	2b01      	cmp	r3, #1
 8000382:	d003      	beq.n	800038c <GPIO_Init+0x76>
 8000384:	683b      	ldr	r3, [r7, #0]
 8000386:	685b      	ldr	r3, [r3, #4]
 8000388:	2b02      	cmp	r3, #2
 800038a:	d12d      	bne.n	80003e8 <GPIO_Init+0xd2>
				temp = GPIOx->OTYPER;
 800038c:	687b      	ldr	r3, [r7, #4]
 800038e:	685b      	ldr	r3, [r3, #4]
 8000390:	60bb      	str	r3, [r7, #8]
				temp &= ~(0x1U << position);
 8000392:	2201      	movs	r2, #1
 8000394:	697b      	ldr	r3, [r7, #20]
 8000396:	fa02 f303 	lsl.w	r3, r2, r3
 800039a:	43db      	mvns	r3, r3
 800039c:	68ba      	ldr	r2, [r7, #8]
 800039e:	4013      	ands	r3, r2
 80003a0:	60bb      	str	r3, [r7, #8]
				temp |= (GPIOStructures->otype << position);
 80003a2:	683b      	ldr	r3, [r7, #0]
 80003a4:	689a      	ldr	r2, [r3, #8]
 80003a6:	697b      	ldr	r3, [r7, #20]
 80003a8:	fa02 f303 	lsl.w	r3, r2, r3
 80003ac:	68ba      	ldr	r2, [r7, #8]
 80003ae:	4313      	orrs	r3, r2
 80003b0:	60bb      	str	r3, [r7, #8]
				GPIOx->OTYPER = temp;
 80003b2:	687b      	ldr	r3, [r7, #4]
 80003b4:	68ba      	ldr	r2, [r7, #8]
 80003b6:	605a      	str	r2, [r3, #4]

				temp=GPIOx->OSPEEDR;
 80003b8:	687b      	ldr	r3, [r7, #4]
 80003ba:	689b      	ldr	r3, [r3, #8]
 80003bc:	60bb      	str	r3, [r7, #8]
				temp &= ~(0x3U << (position * 2));
 80003be:	697b      	ldr	r3, [r7, #20]
 80003c0:	005b      	lsls	r3, r3, #1
 80003c2:	2203      	movs	r2, #3
 80003c4:	fa02 f303 	lsl.w	r3, r2, r3
 80003c8:	43db      	mvns	r3, r3
 80003ca:	68ba      	ldr	r2, [r7, #8]
 80003cc:	4013      	ands	r3, r2
 80003ce:	60bb      	str	r3, [r7, #8]
				temp |= (GPIOStructures->speed<< (position * 2));
 80003d0:	683b      	ldr	r3, [r7, #0]
 80003d2:	691a      	ldr	r2, [r3, #16]
 80003d4:	697b      	ldr	r3, [r7, #20]
 80003d6:	005b      	lsls	r3, r3, #1
 80003d8:	fa02 f303 	lsl.w	r3, r2, r3
 80003dc:	68ba      	ldr	r2, [r7, #8]
 80003de:	4313      	orrs	r3, r2
 80003e0:	60bb      	str	r3, [r7, #8]
				GPIOx->OSPEEDR= temp;
 80003e2:	687b      	ldr	r3, [r7, #4]
 80003e4:	68ba      	ldr	r2, [r7, #8]
 80003e6:	609a      	str	r2, [r3, #8]
			}

			temp=GPIOx->PUPDR;
 80003e8:	687b      	ldr	r3, [r7, #4]
 80003ea:	68db      	ldr	r3, [r3, #12]
 80003ec:	60bb      	str	r3, [r7, #8]
			temp &= ~(0x3U << (position * 2));
 80003ee:	697b      	ldr	r3, [r7, #20]
 80003f0:	005b      	lsls	r3, r3, #1
 80003f2:	2203      	movs	r2, #3
 80003f4:	fa02 f303 	lsl.w	r3, r2, r3
 80003f8:	43db      	mvns	r3, r3
 80003fa:	68ba      	ldr	r2, [r7, #8]
 80003fc:	4013      	ands	r3, r2
 80003fe:	60bb      	str	r3, [r7, #8]
			temp |= (GPIOStructures->pupd<< (position * 2));
 8000400:	683b      	ldr	r3, [r7, #0]
 8000402:	68da      	ldr	r2, [r3, #12]
 8000404:	697b      	ldr	r3, [r7, #20]
 8000406:	005b      	lsls	r3, r3, #1
 8000408:	fa02 f303 	lsl.w	r3, r2, r3
 800040c:	68ba      	ldr	r2, [r7, #8]
 800040e:	4313      	orrs	r3, r2
 8000410:	60bb      	str	r3, [r7, #8]
			GPIOx->PUPDR= temp;
 8000412:	687b      	ldr	r3, [r7, #4]
 8000414:	68ba      	ldr	r2, [r7, #8]
 8000416:	60da      	str	r2, [r3, #12]

			if(GPIOStructures->mode == GPIO_MODER_ALTERNATE){
 8000418:	683b      	ldr	r3, [r7, #0]
 800041a:	685b      	ldr	r3, [r3, #4]
 800041c:	2b02      	cmp	r3, #2
 800041e:	d123      	bne.n	8000468 <GPIO_Init+0x152>
				temp = GPIOx->AFR[position >> 3U];
 8000420:	697b      	ldr	r3, [r7, #20]
 8000422:	08da      	lsrs	r2, r3, #3
 8000424:	687b      	ldr	r3, [r7, #4]
 8000426:	3208      	adds	r2, #8
 8000428:	f853 3022 	ldr.w	r3, [r3, r2, lsl #2]
 800042c:	60bb      	str	r3, [r7, #8]
				temp &= ~(0xFU << ((position & 0x7U)*4));
 800042e:	697b      	ldr	r3, [r7, #20]
 8000430:	f003 0307 	and.w	r3, r3, #7
 8000434:	009b      	lsls	r3, r3, #2
 8000436:	220f      	movs	r2, #15
 8000438:	fa02 f303 	lsl.w	r3, r2, r3
 800043c:	43db      	mvns	r3, r3
 800043e:	68ba      	ldr	r2, [r7, #8]
 8000440:	4013      	ands	r3, r2
 8000442:	60bb      	str	r3, [r7, #8]
				temp |= (GPIOStructures->alternate << ((position & 0x7U)*4));
 8000444:	683b      	ldr	r3, [r7, #0]
 8000446:	695a      	ldr	r2, [r3, #20]
 8000448:	697b      	ldr	r3, [r7, #20]
 800044a:	f003 0307 	and.w	r3, r3, #7
 800044e:	009b      	lsls	r3, r3, #2
 8000450:	fa02 f303 	lsl.w	r3, r2, r3
 8000454:	68ba      	ldr	r2, [r7, #8]
 8000456:	4313      	orrs	r3, r2
 8000458:	60bb      	str	r3, [r7, #8]
				GPIOx->AFR[position >> 3U] = temp;
 800045a:	697b      	ldr	r3, [r7, #20]
 800045c:	08da      	lsrs	r2, r3, #3
 800045e:	687b      	ldr	r3, [r7, #4]
 8000460:	3208      	adds	r2, #8
 8000462:	68b9      	ldr	r1, [r7, #8]
 8000464:	f843 1022 	str.w	r1, [r3, r2, lsl #2]
	for(position = 0;position < 16;position++){
 8000468:	697b      	ldr	r3, [r7, #20]
 800046a:	3301      	adds	r3, #1
 800046c:	617b      	str	r3, [r7, #20]
 800046e:	697b      	ldr	r3, [r7, #20]
 8000470:	2b0f      	cmp	r3, #15
 8000472:	f67f af5c 	bls.w	800032e <GPIO_Init+0x18>
			}
		}

	}
}
 8000476:	bf00      	nop
 8000478:	bf00      	nop
 800047a:	371c      	adds	r7, #28
 800047c:	46bd      	mov	sp, r7
 800047e:	bc80      	pop	{r7}
 8000480:	4770      	bx	lr
	...

08000484 <I2C_Init>:

static void I2C_GenerateStopCondition(I2C_HandlerTypedef *I2C_Handle){
	I2C_Handle->Instance->CR1 |= (0x1U << I2C_CR1_STOP);
}

void I2C_Init(I2C_HandlerTypedef *I2C_Handle){
 8000484:	b580      	push	{r7, lr}
 8000486:	b086      	sub	sp, #24
 8000488:	af00      	add	r7, sp, #0
 800048a:	6078      	str	r0, [r7, #4]

	uint32_t pClockValue = 0x0U;
 800048c:	2300      	movs	r3, #0
 800048e:	60fb      	str	r3, [r7, #12]
	pClockValue = RCC_GetPClock1();
 8000490:	f000 f946 	bl	8000720 <RCC_GetPClock1>
 8000494:	60f8      	str	r0, [r7, #12]

	if(Check_PClock_Value(pClockValue,I2C_Handle->Init.ClockSpeed) != 1U){
 8000496:	687b      	ldr	r3, [r7, #4]
 8000498:	685b      	ldr	r3, [r3, #4]
 800049a:	4a64      	ldr	r2, [pc, #400]	; (800062c <I2C_Init+0x1a8>)
 800049c:	4293      	cmp	r3, r2
 800049e:	d807      	bhi.n	80004b0 <I2C_Init+0x2c>
 80004a0:	68fb      	ldr	r3, [r7, #12]
 80004a2:	4a63      	ldr	r2, [pc, #396]	; (8000630 <I2C_Init+0x1ac>)
 80004a4:	4293      	cmp	r3, r2
 80004a6:	bf8c      	ite	hi
 80004a8:	2301      	movhi	r3, #1
 80004aa:	2300      	movls	r3, #0
 80004ac:	b2db      	uxtb	r3, r3
 80004ae:	e006      	b.n	80004be <I2C_Init+0x3a>
 80004b0:	68fb      	ldr	r3, [r7, #12]
 80004b2:	4a60      	ldr	r2, [pc, #384]	; (8000634 <I2C_Init+0x1b0>)
 80004b4:	4293      	cmp	r3, r2
 80004b6:	bf8c      	ite	hi
 80004b8:	2301      	movhi	r3, #1
 80004ba:	2300      	movls	r3, #0
 80004bc:	b2db      	uxtb	r3, r3
 80004be:	2b00      	cmp	r3, #0
 80004c0:	f000 80af 	beq.w	8000622 <I2C_Init+0x19e>

		uint32_t temp = 0x0U;
 80004c4:	2300      	movs	r3, #0
 80004c6:	617b      	str	r3, [r7, #20]
		uint32_t freqValue = 0x0U;
 80004c8:	2300      	movs	r3, #0
 80004ca:	60bb      	str	r3, [r7, #8]

		temp = I2C_Handle->Instance->CR1;
 80004cc:	687b      	ldr	r3, [r7, #4]
 80004ce:	681b      	ldr	r3, [r3, #0]
 80004d0:	681b      	ldr	r3, [r3, #0]
 80004d2:	617b      	str	r3, [r7, #20]
		temp |= (I2C_Handle->Init.ACKState) | (I2C_Handle->Init.ClockStretch);
 80004d4:	687b      	ldr	r3, [r7, #4]
 80004d6:	689a      	ldr	r2, [r3, #8]
 80004d8:	687b      	ldr	r3, [r7, #4]
 80004da:	68db      	ldr	r3, [r3, #12]
 80004dc:	4313      	orrs	r3, r2
 80004de:	697a      	ldr	r2, [r7, #20]
 80004e0:	4313      	orrs	r3, r2
 80004e2:	617b      	str	r3, [r7, #20]

		I2C_Handle->Instance->CR1 = temp;
 80004e4:	687b      	ldr	r3, [r7, #4]
 80004e6:	681b      	ldr	r3, [r3, #0]
 80004e8:	697a      	ldr	r2, [r7, #20]
 80004ea:	601a      	str	r2, [r3, #0]

		freqValue = I2C_Get_FreqValue(pClockValue);
 80004ec:	68fb      	ldr	r3, [r7, #12]
 80004ee:	4a52      	ldr	r2, [pc, #328]	; (8000638 <I2C_Init+0x1b4>)
 80004f0:	fba2 2303 	umull	r2, r3, r2, r3
 80004f4:	0c9b      	lsrs	r3, r3, #18
 80004f6:	60bb      	str	r3, [r7, #8]

		temp = I2C_Handle->Instance->CR2;
 80004f8:	687b      	ldr	r3, [r7, #4]
 80004fa:	681b      	ldr	r3, [r3, #0]
 80004fc:	685b      	ldr	r3, [r3, #4]
 80004fe:	617b      	str	r3, [r7, #20]
		temp |= (freqValue << 0U);
 8000500:	697a      	ldr	r2, [r7, #20]
 8000502:	68bb      	ldr	r3, [r7, #8]
 8000504:	4313      	orrs	r3, r2
 8000506:	617b      	str	r3, [r7, #20]

		I2C_Handle->Instance->CR2 = temp;
 8000508:	687b      	ldr	r3, [r7, #4]
 800050a:	681b      	ldr	r3, [r3, #0]
 800050c:	697a      	ldr	r2, [r7, #20]
 800050e:	605a      	str	r2, [r3, #4]

		temp = I2C_Handle->Instance->OAR1;
 8000510:	687b      	ldr	r3, [r7, #4]
 8000512:	681b      	ldr	r3, [r3, #0]
 8000514:	689b      	ldr	r3, [r3, #8]
 8000516:	617b      	str	r3, [r7, #20]

		temp |= I2C_Handle->Init.AddressingMode;
 8000518:	687b      	ldr	r3, [r7, #4]
 800051a:	691b      	ldr	r3, [r3, #16]
 800051c:	697a      	ldr	r2, [r7, #20]
 800051e:	4313      	orrs	r3, r2
 8000520:	617b      	str	r3, [r7, #20]

		if(I2C_Handle->Init.AddressingMode == I2C_ADDRMODE_7){
 8000522:	687b      	ldr	r3, [r7, #4]
 8000524:	691b      	ldr	r3, [r3, #16]
 8000526:	f5b3 4f80 	cmp.w	r3, #16384	; 0x4000
 800052a:	d106      	bne.n	800053a <I2C_Init+0xb6>
			temp |= (I2C_Handle->Init.MyOwnAddress << 1U);
 800052c:	687b      	ldr	r3, [r7, #4]
 800052e:	699b      	ldr	r3, [r3, #24]
 8000530:	005b      	lsls	r3, r3, #1
 8000532:	697a      	ldr	r2, [r7, #20]
 8000534:	4313      	orrs	r3, r2
 8000536:	617b      	str	r3, [r7, #20]
 8000538:	e004      	b.n	8000544 <I2C_Init+0xc0>
		}
		else{
			temp |= (I2C_Handle->Init.MyOwnAddress << 0U);
 800053a:	687b      	ldr	r3, [r7, #4]
 800053c:	699b      	ldr	r3, [r3, #24]
 800053e:	697a      	ldr	r2, [r7, #20]
 8000540:	4313      	orrs	r3, r2
 8000542:	617b      	str	r3, [r7, #20]
		}

		I2C_Handle->Instance->OAR1 = temp;
 8000544:	687b      	ldr	r3, [r7, #4]
 8000546:	681b      	ldr	r3, [r3, #0]
 8000548:	697a      	ldr	r2, [r7, #20]
 800054a:	609a      	str	r2, [r3, #8]

		uint16_t ccr_value = 0;
 800054c:	2300      	movs	r3, #0
 800054e:	827b      	strh	r3, [r7, #18]

		temp = I2C_Handle->Instance->CCR;
 8000550:	687b      	ldr	r3, [r7, #4]
 8000552:	681b      	ldr	r3, [r3, #0]
 8000554:	69db      	ldr	r3, [r3, #28]
 8000556:	617b      	str	r3, [r7, #20]

		if(I2C_Handle->Init.ClockSpeed <= I2C_SPEED_STANDART){
 8000558:	687b      	ldr	r3, [r7, #4]
 800055a:	685b      	ldr	r3, [r3, #4]
 800055c:	4a33      	ldr	r2, [pc, #204]	; (800062c <I2C_Init+0x1a8>)
 800055e:	4293      	cmp	r3, r2
 8000560:	d80f      	bhi.n	8000582 <I2C_Init+0xfe>

			ccr_value = (RCC_GetPClock1() / ( 2 * I2C_Handle->Init.ClockSpeed));
 8000562:	f000 f8dd 	bl	8000720 <RCC_GetPClock1>
 8000566:	4602      	mov	r2, r0
 8000568:	687b      	ldr	r3, [r7, #4]
 800056a:	685b      	ldr	r3, [r3, #4]
 800056c:	005b      	lsls	r3, r3, #1
 800056e:	fbb2 f3f3 	udiv	r3, r2, r3
 8000572:	827b      	strh	r3, [r7, #18]
			temp |= (ccr_value & 0xFFF);
 8000574:	8a7b      	ldrh	r3, [r7, #18]
 8000576:	f3c3 030b 	ubfx	r3, r3, #0, #12
 800057a:	697a      	ldr	r2, [r7, #20]
 800057c:	4313      	orrs	r3, r2
 800057e:	617b      	str	r3, [r7, #20]
 8000580:	e028      	b.n	80005d4 <I2C_Init+0x150>
		}
		else{
			temp |= I2C_Handle->Init.DutyCycle;
 8000582:	687b      	ldr	r3, [r7, #4]
 8000584:	695b      	ldr	r3, [r3, #20]
 8000586:	697a      	ldr	r2, [r7, #20]
 8000588:	4313      	orrs	r3, r2
 800058a:	617b      	str	r3, [r7, #20]

			if(I2C_Handle->Init.DutyCycle == I2C_DUTY_FM_2){
 800058c:	687b      	ldr	r3, [r7, #4]
 800058e:	695b      	ldr	r3, [r3, #20]
 8000590:	f5b3 4f00 	cmp.w	r3, #32768	; 0x8000
 8000594:	d10b      	bne.n	80005ae <I2C_Init+0x12a>
				ccr_value = (RCC_GetPClock1() / ( 3 * I2C_Handle->Init.ClockSpeed));
 8000596:	f000 f8c3 	bl	8000720 <RCC_GetPClock1>
 800059a:	4601      	mov	r1, r0
 800059c:	687b      	ldr	r3, [r7, #4]
 800059e:	685a      	ldr	r2, [r3, #4]
 80005a0:	4613      	mov	r3, r2
 80005a2:	005b      	lsls	r3, r3, #1
 80005a4:	4413      	add	r3, r2
 80005a6:	fbb1 f3f3 	udiv	r3, r1, r3
 80005aa:	827b      	strh	r3, [r7, #18]
 80005ac:	e00c      	b.n	80005c8 <I2C_Init+0x144>
			}
			else{
				ccr_value = (RCC_GetPClock1() / ( 25 * I2C_Handle->Init.ClockSpeed));
 80005ae:	f000 f8b7 	bl	8000720 <RCC_GetPClock1>
 80005b2:	4601      	mov	r1, r0
 80005b4:	687b      	ldr	r3, [r7, #4]
 80005b6:	685a      	ldr	r2, [r3, #4]
 80005b8:	4613      	mov	r3, r2
 80005ba:	009b      	lsls	r3, r3, #2
 80005bc:	4413      	add	r3, r2
 80005be:	009a      	lsls	r2, r3, #2
 80005c0:	4413      	add	r3, r2
 80005c2:	fbb1 f3f3 	udiv	r3, r1, r3
 80005c6:	827b      	strh	r3, [r7, #18]
			}
			temp |= (ccr_value & 0xFFF);
 80005c8:	8a7b      	ldrh	r3, [r7, #18]
 80005ca:	f3c3 030b 	ubfx	r3, r3, #0, #12
 80005ce:	697a      	ldr	r2, [r7, #20]
 80005d0:	4313      	orrs	r3, r2
 80005d2:	617b      	str	r3, [r7, #20]
		}
		I2C_Handle->Instance->CCR = temp;
 80005d4:	687b      	ldr	r3, [r7, #4]
 80005d6:	681b      	ldr	r3, [r3, #0]
 80005d8:	697a      	ldr	r2, [r7, #20]
 80005da:	61da      	str	r2, [r3, #28]

		if(I2C_Handle->Init.ClockSpeed <= I2C_SPEED_STANDART){
 80005dc:	687b      	ldr	r3, [r7, #4]
 80005de:	685b      	ldr	r3, [r3, #4]
 80005e0:	4a12      	ldr	r2, [pc, #72]	; (800062c <I2C_Init+0x1a8>)
 80005e2:	4293      	cmp	r3, r2
 80005e4:	d809      	bhi.n	80005fa <I2C_Init+0x176>

			temp = (RCC_GetPClock1() / 1000000U) + 1;
 80005e6:	f000 f89b 	bl	8000720 <RCC_GetPClock1>
 80005ea:	4603      	mov	r3, r0
 80005ec:	4a12      	ldr	r2, [pc, #72]	; (8000638 <I2C_Init+0x1b4>)
 80005ee:	fba2 2303 	umull	r2, r3, r2, r3
 80005f2:	0c9b      	lsrs	r3, r3, #18
 80005f4:	3301      	adds	r3, #1
 80005f6:	617b      	str	r3, [r7, #20]
 80005f8:	e00d      	b.n	8000616 <I2C_Init+0x192>
		}
		else{
			temp = ((RCC_GetPClock1()*300) / 1000000000U) + 1;
 80005fa:	f000 f891 	bl	8000720 <RCC_GetPClock1>
 80005fe:	4603      	mov	r3, r0
 8000600:	f44f 7296 	mov.w	r2, #300	; 0x12c
 8000604:	fb02 f303 	mul.w	r3, r2, r3
 8000608:	0a5b      	lsrs	r3, r3, #9
 800060a:	4a0c      	ldr	r2, [pc, #48]	; (800063c <I2C_Init+0x1b8>)
 800060c:	fba2 2303 	umull	r2, r3, r2, r3
 8000610:	09db      	lsrs	r3, r3, #7
 8000612:	3301      	adds	r3, #1
 8000614:	617b      	str	r3, [r7, #20]
		}

		I2C_Handle->Instance->TRISE = (temp & 0x3FU);
 8000616:	687b      	ldr	r3, [r7, #4]
 8000618:	681b      	ldr	r3, [r3, #0]
 800061a:	697a      	ldr	r2, [r7, #20]
 800061c:	f002 023f 	and.w	r2, r2, #63	; 0x3f
 8000620:	621a      	str	r2, [r3, #32]
	}
}
 8000622:	bf00      	nop
 8000624:	3718      	adds	r7, #24
 8000626:	46bd      	mov	sp, r7
 8000628:	bd80      	pop	{r7, pc}
 800062a:	bf00      	nop
 800062c:	000186a0 	.word	0x000186a0
 8000630:	001e8480 	.word	0x001e8480
 8000634:	003d0900 	.word	0x003d0900
 8000638:	431bde83 	.word	0x431bde83
 800063c:	00044b83 	.word	0x00044b83

08000640 <I2C_PeriphState>:
I2C_FlagStatus I2C_GetFlagStatus(I2C_HandlerTypedef *I2C_Handle, uint16_t I2C_Flag){

	return(I2C_Handle->Instance->SR1 & I2C_Flag) ? I2C_FLAG_SET : I2C_FLAG_RESET;
}

void I2C_PeriphState(I2C_HandlerTypedef *I2C_Handle, FunctionalState I2CState){
 8000640:	b480      	push	{r7}
 8000642:	b083      	sub	sp, #12
 8000644:	af00      	add	r7, sp, #0
 8000646:	6078      	str	r0, [r7, #4]
 8000648:	460b      	mov	r3, r1
 800064a:	70fb      	strb	r3, [r7, #3]

	if(I2CState == ENABLE){
 800064c:	78fb      	ldrb	r3, [r7, #3]
 800064e:	2b01      	cmp	r3, #1
 8000650:	d108      	bne.n	8000664 <I2C_PeriphState+0x24>
		I2C_Handle->Instance->CR1 |= (0x1U << I2C_CR1_PE);
 8000652:	687b      	ldr	r3, [r7, #4]
 8000654:	681b      	ldr	r3, [r3, #0]
 8000656:	681a      	ldr	r2, [r3, #0]
 8000658:	687b      	ldr	r3, [r7, #4]
 800065a:	681b      	ldr	r3, [r3, #0]
 800065c:	f042 0201 	orr.w	r2, r2, #1
 8000660:	601a      	str	r2, [r3, #0]
	}
	else{
		I2C_Handle->Instance->CR1 &= ~(0x1U << I2C_CR1_PE);
	}
}
 8000662:	e007      	b.n	8000674 <I2C_PeriphState+0x34>
		I2C_Handle->Instance->CR1 &= ~(0x1U << I2C_CR1_PE);
 8000664:	687b      	ldr	r3, [r7, #4]
 8000666:	681b      	ldr	r3, [r3, #0]
 8000668:	681a      	ldr	r2, [r3, #0]
 800066a:	687b      	ldr	r3, [r7, #4]
 800066c:	681b      	ldr	r3, [r3, #0]
 800066e:	f022 0201 	bic.w	r2, r2, #1
 8000672:	601a      	str	r2, [r3, #0]
}
 8000674:	bf00      	nop
 8000676:	370c      	adds	r7, #12
 8000678:	46bd      	mov	sp, r7
 800067a:	bc80      	pop	{r7}
 800067c:	4770      	bx	lr
	...

08000680 <RCC_GetSystemClock>:

const uint8_t AHB_Prescaler[] = {0, 0, 0, 0, 0, 0, 0, 0, 1, 2, 3, 4, 6, 7, 8, 9};

const uint8_t APB_Prescaler[] = {0, 0, 0, 0, 1, 2, 3, 4};

uint32_t RCC_GetSystemClock(void){
 8000680:	b480      	push	{r7}
 8000682:	b083      	sub	sp, #12
 8000684:	af00      	add	r7, sp, #0

	uint32_t SystemCoreClock = 0;
 8000686:	2300      	movs	r3, #0
 8000688:	607b      	str	r3, [r7, #4]
	uint8_t clckSource = 0;
 800068a:	2300      	movs	r3, #0
 800068c:	70fb      	strb	r3, [r7, #3]

	clckSource = ((RCC->CFGR >> 2U) & 0x3U);
 800068e:	4b0d      	ldr	r3, [pc, #52]	; (80006c4 <RCC_GetSystemClock+0x44>)
 8000690:	689b      	ldr	r3, [r3, #8]
 8000692:	089b      	lsrs	r3, r3, #2
 8000694:	b2db      	uxtb	r3, r3
 8000696:	f003 0303 	and.w	r3, r3, #3
 800069a:	70fb      	strb	r3, [r7, #3]

	switch(clckSource){
 800069c:	78fb      	ldrb	r3, [r7, #3]
 800069e:	2b00      	cmp	r3, #0
 80006a0:	d002      	beq.n	80006a8 <RCC_GetSystemClock+0x28>
 80006a2:	2b01      	cmp	r3, #1
 80006a4:	d003      	beq.n	80006ae <RCC_GetSystemClock+0x2e>
 80006a6:	e005      	b.n	80006b4 <RCC_GetSystemClock+0x34>
	case 0:
		SystemCoreClock = 16000000;
 80006a8:	4b07      	ldr	r3, [pc, #28]	; (80006c8 <RCC_GetSystemClock+0x48>)
 80006aa:	607b      	str	r3, [r7, #4]
		break;
 80006ac:	e004      	b.n	80006b8 <RCC_GetSystemClock+0x38>
	case 1:
		SystemCoreClock = 8000000;
 80006ae:	4b07      	ldr	r3, [pc, #28]	; (80006cc <RCC_GetSystemClock+0x4c>)
 80006b0:	607b      	str	r3, [r7, #4]
		break;
 80006b2:	e001      	b.n	80006b8 <RCC_GetSystemClock+0x38>
	default:
		SystemCoreClock = 16000000;
 80006b4:	4b04      	ldr	r3, [pc, #16]	; (80006c8 <RCC_GetSystemClock+0x48>)
 80006b6:	607b      	str	r3, [r7, #4]

	}

	return SystemCoreClock;
 80006b8:	687b      	ldr	r3, [r7, #4]
}
 80006ba:	4618      	mov	r0, r3
 80006bc:	370c      	adds	r7, #12
 80006be:	46bd      	mov	sp, r7
 80006c0:	bc80      	pop	{r7}
 80006c2:	4770      	bx	lr
 80006c4:	40023800 	.word	0x40023800
 80006c8:	00f42400 	.word	0x00f42400
 80006cc:	007a1200 	.word	0x007a1200

080006d0 <RCC_GetHClock>:

uint32_t RCC_GetHClock(void){
 80006d0:	b580      	push	{r7, lr}
 80006d2:	b084      	sub	sp, #16
 80006d4:	af00      	add	r7, sp, #0

	uint32_t AHB_PeriphClock = 0;
 80006d6:	2300      	movs	r3, #0
 80006d8:	60fb      	str	r3, [r7, #12]
	uint32_t SystemCoreClock = 0;
 80006da:	2300      	movs	r3, #0
 80006dc:	60bb      	str	r3, [r7, #8]
	uint8_t HPRE_Value = 0;
 80006de:	2300      	movs	r3, #0
 80006e0:	71fb      	strb	r3, [r7, #7]
	uint8_t temp = 0;
 80006e2:	2300      	movs	r3, #0
 80006e4:	71bb      	strb	r3, [r7, #6]

	SystemCoreClock = RCC_GetSystemClock();
 80006e6:	f7ff ffcb 	bl	8000680 <RCC_GetSystemClock>
 80006ea:	60b8      	str	r0, [r7, #8]

	HPRE_Value = ( (RCC->CFGR >> 4U) & 0xFU);
 80006ec:	4b0a      	ldr	r3, [pc, #40]	; (8000718 <RCC_GetHClock+0x48>)
 80006ee:	689b      	ldr	r3, [r3, #8]
 80006f0:	091b      	lsrs	r3, r3, #4
 80006f2:	b2db      	uxtb	r3, r3
 80006f4:	f003 030f 	and.w	r3, r3, #15
 80006f8:	71fb      	strb	r3, [r7, #7]
	temp = AHB_Prescaler[HPRE_Value];
 80006fa:	79fb      	ldrb	r3, [r7, #7]
 80006fc:	4a07      	ldr	r2, [pc, #28]	; (800071c <RCC_GetHClock+0x4c>)
 80006fe:	5cd3      	ldrb	r3, [r2, r3]
 8000700:	71bb      	strb	r3, [r7, #6]

	AHB_PeriphClock = SystemCoreClock >> temp;
 8000702:	79bb      	ldrb	r3, [r7, #6]
 8000704:	68ba      	ldr	r2, [r7, #8]
 8000706:	fa22 f303 	lsr.w	r3, r2, r3
 800070a:	60fb      	str	r3, [r7, #12]

	return AHB_PeriphClock;
 800070c:	68fb      	ldr	r3, [r7, #12]
}
 800070e:	4618      	mov	r0, r3
 8000710:	3710      	adds	r7, #16
 8000712:	46bd      	mov	sp, r7
 8000714:	bd80      	pop	{r7, pc}
 8000716:	bf00      	nop
 8000718:	40023800 	.word	0x40023800
 800071c:	080007d0 	.word	0x080007d0

08000720 <RCC_GetPClock1>:

uint32_t RCC_GetPClock1(void){
 8000720:	b580      	push	{r7, lr}
 8000722:	b084      	sub	sp, #16
 8000724:	af00      	add	r7, sp, #0

	uint32_t APB1_PeriphClock = 0;
 8000726:	2300      	movs	r3, #0
 8000728:	60fb      	str	r3, [r7, #12]
	uint32_t Hclock = 0;
 800072a:	2300      	movs	r3, #0
 800072c:	60bb      	str	r3, [r7, #8]
	uint8_t HPRE1_Value = 0;
 800072e:	2300      	movs	r3, #0
 8000730:	71fb      	strb	r3, [r7, #7]
	uint8_t temp = 0;
 8000732:	2300      	movs	r3, #0
 8000734:	71bb      	strb	r3, [r7, #6]

	Hclock = RCC_GetHClock();
 8000736:	f7ff ffcb 	bl	80006d0 <RCC_GetHClock>
 800073a:	60b8      	str	r0, [r7, #8]

	HPRE1_Value = ((RCC->CFGR >> 10U) & 0x7U);
 800073c:	4b0a      	ldr	r3, [pc, #40]	; (8000768 <RCC_GetPClock1+0x48>)
 800073e:	689b      	ldr	r3, [r3, #8]
 8000740:	0a9b      	lsrs	r3, r3, #10
 8000742:	b2db      	uxtb	r3, r3
 8000744:	f003 0307 	and.w	r3, r3, #7
 8000748:	71fb      	strb	r3, [r7, #7]

	temp = APB_Prescaler[HPRE1_Value];
 800074a:	79fb      	ldrb	r3, [r7, #7]
 800074c:	4a07      	ldr	r2, [pc, #28]	; (800076c <RCC_GetPClock1+0x4c>)
 800074e:	5cd3      	ldrb	r3, [r2, r3]
 8000750:	71bb      	strb	r3, [r7, #6]

	APB1_PeriphClock = (Hclock >> temp);
 8000752:	79bb      	ldrb	r3, [r7, #6]
 8000754:	68ba      	ldr	r2, [r7, #8]
 8000756:	fa22 f303 	lsr.w	r3, r2, r3
 800075a:	60fb      	str	r3, [r7, #12]

	return APB1_PeriphClock;
 800075c:	68fb      	ldr	r3, [r7, #12]
}
 800075e:	4618      	mov	r0, r3
 8000760:	3710      	adds	r7, #16
 8000762:	46bd      	mov	sp, r7
 8000764:	bd80      	pop	{r7, pc}
 8000766:	bf00      	nop
 8000768:	40023800 	.word	0x40023800
 800076c:	080007e0 	.word	0x080007e0

08000770 <__libc_init_array>:
 8000770:	b570      	push	{r4, r5, r6, lr}
 8000772:	4d0d      	ldr	r5, [pc, #52]	; (80007a8 <__libc_init_array+0x38>)
 8000774:	4c0d      	ldr	r4, [pc, #52]	; (80007ac <__libc_init_array+0x3c>)
 8000776:	1b64      	subs	r4, r4, r5
 8000778:	10a4      	asrs	r4, r4, #2
 800077a:	2600      	movs	r6, #0
 800077c:	42a6      	cmp	r6, r4
 800077e:	d109      	bne.n	8000794 <__libc_init_array+0x24>
 8000780:	4d0b      	ldr	r5, [pc, #44]	; (80007b0 <__libc_init_array+0x40>)
 8000782:	4c0c      	ldr	r4, [pc, #48]	; (80007b4 <__libc_init_array+0x44>)
 8000784:	f000 f818 	bl	80007b8 <_init>
 8000788:	1b64      	subs	r4, r4, r5
 800078a:	10a4      	asrs	r4, r4, #2
 800078c:	2600      	movs	r6, #0
 800078e:	42a6      	cmp	r6, r4
 8000790:	d105      	bne.n	800079e <__libc_init_array+0x2e>
 8000792:	bd70      	pop	{r4, r5, r6, pc}
 8000794:	f855 3b04 	ldr.w	r3, [r5], #4
 8000798:	4798      	blx	r3
 800079a:	3601      	adds	r6, #1
 800079c:	e7ee      	b.n	800077c <__libc_init_array+0xc>
 800079e:	f855 3b04 	ldr.w	r3, [r5], #4
 80007a2:	4798      	blx	r3
 80007a4:	3601      	adds	r6, #1
 80007a6:	e7f2      	b.n	800078e <__libc_init_array+0x1e>
 80007a8:	080007e8 	.word	0x080007e8
 80007ac:	080007e8 	.word	0x080007e8
 80007b0:	080007e8 	.word	0x080007e8
 80007b4:	080007ec 	.word	0x080007ec

080007b8 <_init>:
 80007b8:	b5f8      	push	{r3, r4, r5, r6, r7, lr}
 80007ba:	bf00      	nop
 80007bc:	bcf8      	pop	{r3, r4, r5, r6, r7}
 80007be:	bc08      	pop	{r3}
 80007c0:	469e      	mov	lr, r3
 80007c2:	4770      	bx	lr

080007c4 <_fini>:
 80007c4:	b5f8      	push	{r3, r4, r5, r6, r7, lr}
 80007c6:	bf00      	nop
 80007c8:	bcf8      	pop	{r3, r4, r5, r6, r7}
 80007ca:	bc08      	pop	{r3}
 80007cc:	469e      	mov	lr, r3
 80007ce:	4770      	bx	lr
